target datalayout = "e-m:e-p270:32:32-p271:32:32-p272:64:64-i64:64-i128:128-f80:128-n8:16:32:64-S128"
target triple = "x86_64-pc-linux-gnu"

@hf_nas_5gs_mm_length = internal global i32 0, align 4
@hf_nas_5gs_mm_s_nssai_loc_valid_info_per_s_nssai_len = internal global i32 0, align 4
@hf_nas_5gs_mm_s_nssai_loc_valid_info_per_s_nssai_nb_nr_cgi = internal global i32 0, align 4
@hf_nas_5gs_mm_s_nssai_loc_valid_info_per_s_nssai_nr_cell_id = internal global i32 0, align 4
@ett_nas_5gs_mm_s_nssai_loc_valid_info = internal global i32 0, align 4
@.str.1736 = private unnamed_addr constant [57 x i8] c"Per-S-NSSAI location validity information for S-NSSAI %u\00", align 1

; Function Attrs: null_pointer_is_valid sspstrong uwtable
define internal zeroext i16 @de_nas_5gs_mm_s_nssai_loc_valid_info(ptr noundef %0, ptr noundef %1, ptr noundef %2, i32 noundef %3, i32 noundef %4, ptr noundef %5, i32 noundef %6) #0 {
  %8 = alloca ptr, align 8
  %9 = alloca ptr, align 8
  %10 = alloca ptr, align 8
  %11 = alloca i32, align 4
  %12 = alloca i32, align 4
  %13 = alloca ptr, align 8
  %14 = alloca i32, align 4
  %15 = alloca i32, align 4
  %16 = alloca i32, align 4
  %17 = alloca ptr, align 8
  %18 = alloca ptr, align 8
  %19 = alloca i32, align 4
  %20 = alloca i32, align 4
  %21 = alloca i32, align 4
  store ptr %0, ptr %8, align 8
  store ptr %1, ptr %9, align 8
  store ptr %2, ptr %10, align 8
  store i32 %3, ptr %11, align 4
  store i32 %4, ptr %12, align 4
  store ptr %5, ptr %13, align 8
  store i32 %6, ptr %14, align 4
  call void @llvm.lifetime.start.p0(i64 4, ptr %15) #11
  %22 = load i32, ptr %11, align 4
  store i32 %22, ptr %15, align 4
  call void @llvm.lifetime.start.p0(i64 4, ptr %16) #11
  store i32 1, ptr %16, align 4
  br label %23

23:                                               ; preds = %88, %7
  %24 = load i32, ptr %15, align 4
  %25 = load i32, ptr %11, align 4
  %26 = sub i32 %24, %25
  %27 = load i32, ptr %12, align 4
  %28 = icmp ult i32 %26, %27
  br i1 %28, label %29, label %93

29:                                               ; preds = %23
  call void @llvm.lifetime.start.p0(i64 8, ptr %17) #11
  call void @llvm.lifetime.start.p0(i64 8, ptr %18) #11
  call void @llvm.lifetime.start.p0(i64 4, ptr %19) #11
  %30 = load i32, ptr %15, align 4
  store i32 %30, ptr %19, align 4
  call void @llvm.lifetime.start.p0(i64 4, ptr %20) #11
  call void @llvm.lifetime.start.p0(i64 4, ptr %21) #11
  %31 = load ptr, ptr %9, align 8
  %32 = load ptr, ptr %8, align 8
  %33 = load i32, ptr %15, align 4
  %34 = load i32, ptr @ett_nas_5gs_mm_s_nssai_loc_valid_info, align 4
  %35 = load i32, ptr %16, align 4
  %36 = add i32 %35, 1
  store i32 %36, ptr %16, align 4
  %37 = call ptr (ptr, ptr, i32, i32, i32, ptr, ptr, ...) @proto_tree_add_subtree_format(ptr noundef %31, ptr noundef %32, i32 noundef %33, i32 noundef -1, i32 noundef %34, ptr noundef %18, ptr noundef @.str.1736, i32 noundef %35)
  store ptr %37, ptr %17, align 8
  %38 = load ptr, ptr %17, align 8
  %39 = load i32, ptr @hf_nas_5gs_mm_s_nssai_loc_valid_info_per_s_nssai_len, align 4
  %40 = load ptr, ptr %8, align 8
  %41 = load i32, ptr %15, align 4
  %42 = call ptr @proto_tree_add_item(ptr noundef %38, i32 noundef %39, ptr noundef %40, i32 noundef %41, i32 noundef 2, i32 noundef 0)
  %43 = load i32, ptr %15, align 4
  %44 = add i32 %43, 2
  store i32 %44, ptr %15, align 4
  %45 = load ptr, ptr %17, align 8
  %46 = load i32, ptr @hf_nas_5gs_mm_length, align 4
  %47 = load ptr, ptr %8, align 8
  %48 = load i32, ptr %15, align 4
  %49 = call ptr @proto_tree_add_item_ret_uint(ptr noundef %45, i32 noundef %46, ptr noundef %47, i32 noundef %48, i32 noundef 1, i32 noundef 0, ptr noundef %20)
  %50 = load i32, ptr %15, align 4
  %51 = add i32 %50, 1
  store i32 %51, ptr %15, align 4
  %52 = load ptr, ptr %8, align 8
  %53 = load ptr, ptr %17, align 8
  %54 = load ptr, ptr %10, align 8
  %55 = load i32, ptr %15, align 4
  %56 = load i32, ptr %20, align 4
  %57 = call zeroext i16 @de_nas_5gs_cmn_s_nssai(ptr noundef %52, ptr noundef %53, ptr noundef %54, i32 noundef %55, i32 noundef %56, ptr noundef null, i32 noundef 0)
  %58 = zext i16 %57 to i32
  %59 = load i32, ptr %15, align 4
  %60 = add i32 %59, %58
  store i32 %60, ptr %15, align 4
  %61 = load ptr, ptr %17, align 8
  %62 = load i32, ptr @hf_nas_5gs_mm_s_nssai_loc_valid_info_per_s_nssai_nb_nr_cgi, align 4
  %63 = load ptr, ptr %8, align 8
  %64 = load i32, ptr %15, align 4
  %65 = call ptr @proto_tree_add_item_ret_uint(ptr noundef %61, i32 noundef %62, ptr noundef %63, i32 noundef %64, i32 noundef 1, i32 noundef 0, ptr noundef %20)
  %66 = load i32, ptr %15, align 4
  %67 = add i32 %66, 1
  store i32 %67, ptr %15, align 4
  store i32 0, ptr %21, align 4
  br label %68

68:                                               ; preds = %85, %29
  %69 = load i32, ptr %21, align 4
  %70 = load i32, ptr %20, align 4
  %71 = icmp ult i32 %69, %70
  br i1 %71, label %72, label %88

72:                                               ; preds = %68
  %73 = load ptr, ptr %17, align 8
  %74 = load i32, ptr @hf_nas_5gs_mm_s_nssai_loc_valid_info_per_s_nssai_nr_cell_id, align 4
  %75 = load ptr, ptr %8, align 8
  %76 = load i32, ptr %15, align 4
  %77 = call ptr @proto_tree_add_item(ptr noundef %73, i32 noundef %74, ptr noundef %75, i32 noundef %76, i32 noundef 5, i32 noundef 0)
  %78 = load i32, ptr %15, align 4
  %79 = add i32 %78, 5
  store i32 %79, ptr %15, align 4
  %80 = load ptr, ptr %8, align 8
  %81 = load ptr, ptr %10, align 8
  %82 = load ptr, ptr %9, align 8
  %83 = load i32, ptr %15, align 4
  %84 = call i32 @dissect_e212_mcc_mnc(ptr noundef %80, ptr noundef %81, ptr noundef %82, i32 noundef %83, i32 noundef 0, i1 noundef zeroext true)
  store i32 %84, ptr %15, align 4
  br label %85

85:                                               ; preds = %72
  %86 = load i32, ptr %21, align 4
  %87 = add i32 %86, 1
  store i32 %87, ptr %21, align 4
  br label %68, !llvm.loop !48

88:                                               ; preds = %68
  %89 = load ptr, ptr %18, align 8
  %90 = load i32, ptr %15, align 4
  %91 = load i32, ptr %19, align 4
  %92 = sub i32 %90, %91
  call void @proto_item_set_len(ptr noundef %89, i32 noundef %92)
  call void @llvm.lifetime.end.p0(i64 4, ptr %21) #11
  call void @llvm.lifetime.end.p0(i64 4, ptr %20) #11
  call void @llvm.lifetime.end.p0(i64 4, ptr %19) #11
  call void @llvm.lifetime.end.p0(i64 8, ptr %18) #11
  call void @llvm.lifetime.end.p0(i64 8, ptr %17) #11
  br label %23, !llvm.loop !49

93:                                               ; preds = %23
  %94 = load i32, ptr %12, align 4
  %95 = trunc i32 %94 to i16
  call void @llvm.lifetime.end.p0(i64 4, ptr %16) #11
  call void @llvm.lifetime.end.p0(i64 4, ptr %15) #11
  ret i16 %95
}