; Function Attrs: null_pointer_is_valid sspstrong uwtable
define internal noundef zeroext i16 @de_nas_5gs_mm_s_nssai_loc_valid_info(ptr noundef %0, ptr noundef %1, ptr noundef %2, i32 noundef %3, i32 noundef %4, ptr readnone captures(none) %5, i32 %6) #0 {
  %8 = alloca ptr, align 8
  %9 = alloca i32, align 4
  %.not = icmp eq i32 %4, 0
  br i1 %.not, label %._crit_edge47, label %.lr.ph46

.lr.ph46:                                         ; preds = %7, %._crit_edge
  %.03844 = phi i32 [ %.1.lcssa, %._crit_edge ], [ %3, %7 ]
  %.03943 = phi i32 [ %11, %._crit_edge ], [ 1, %7 ]
  call void @llvm.lifetime.start.p0(i64 8, ptr nonnull %8) #12
  call void @llvm.lifetime.start.p0(i64 4, ptr nonnull %9) #12
  %10 = load i32, ptr @ett_nas_5gs_mm_s_nssai_loc_valid_info, align 4
  %11 = add i32 %.03943, 1
  %12 = call ptr (ptr, ptr, i32, i32, i32, ptr, ptr, ...) @proto_tree_add_subtree_format(ptr noundef %1, ptr noundef %0, i32 noundef %.03844, i32 noundef -1, i32 noundef %10, ptr noundef nonnull %8, ptr noundef nonnull @.str.1736, i32 noundef %.03943)
  %13 = load i32, ptr @hf_nas_5gs_mm_s_nssai_loc_valid_info_per_s_nssai_len, align 4
  %14 = call ptr @proto_tree_add_item(ptr noundef %12, i32 noundef %13, ptr noundef %0, i32 noundef %.03844, i32 noundef 2, i32 noundef 0)
  %15 = add i32 %.03844, 2
  %16 = load i32, ptr @hf_nas_5gs_mm_length, align 4
  %17 = call ptr @proto_tree_add_item_ret_uint(ptr noundef %12, i32 noundef %16, ptr noundef %0, i32 noundef %15, i32 noundef 1, i32 noundef 0, ptr noundef nonnull %9)
  %18 = add i32 %.03844, 3
  %19 = load i32, ptr %9, align 4
  %20 = call zeroext i16 @de_nas_5gs_cmn_s_nssai(ptr noundef %0, ptr noundef %12, ptr poison, i32 noundef %18, i32 noundef %19, ptr poison, i32 poison)
  %21 = zext i16 %20 to i32
  %22 = add i32 %18, %21
  %23 = load i32, ptr @hf_nas_5gs_mm_s_nssai_loc_valid_info_per_s_nssai_nb_nr_cgi, align 4
  %24 = call ptr @proto_tree_add_item_ret_uint(ptr noundef %12, i32 noundef %23, ptr noundef %0, i32 noundef %22, i32 noundef 1, i32 noundef 0, ptr noundef nonnull %9)
  %25 = add i32 %22, 1
  %26 = load i32, ptr %9, align 4
  %.not48 = icmp eq i32 %26, 0
  br i1 %.not48, label %._crit_edge, label %.lr.ph

.lr.ph:                                           ; preds = %.lr.ph46, %.lr.ph
  %.042 = phi i32 [ %31, %.lr.ph ], [ 0, %.lr.ph46 ]
  %.141 = phi i32 [ %30, %.lr.ph ], [ %25, %.lr.ph46 ]
  %27 = load i32, ptr @hf_nas_5gs_mm_s_nssai_loc_valid_info_per_s_nssai_nr_cell_id, align 4
  %28 = call ptr @proto_tree_add_item(ptr noundef %12, i32 noundef %27, ptr noundef %0, i32 noundef %.141, i32 noundef 5, i32 noundef 0)
  %29 = add i32 %.141, 5
  %30 = call i32 @dissect_e212_mcc_mnc(ptr noundef %0, ptr noundef %2, ptr noundef %1, i32 noundef %29, i32 noundef 0, i1 noundef zeroext true)
  %31 = add nuw i32 %.042, 1
  %32 = load i32, ptr %9, align 4
  %33 = icmp ult i32 %31, %32
  br i1 %33, label %.lr.ph, label %._crit_edge, !llvm.loop !48

._crit_edge:                                      ; preds = %.lr.ph, %.lr.ph46
  %.1.lcssa = phi i32 [ %25, %.lr.ph46 ], [ %30, %.lr.ph ]
  %34 = load ptr, ptr %8, align 8
  %35 = sub i32 %.1.lcssa, %.03844
  call void @proto_item_set_len(ptr noundef %34, i32 noundef %35)
  call void @llvm.lifetime.end.p0(i64 4, ptr nonnull %9) #12
  call void @llvm.lifetime.end.p0(i64 8, ptr nonnull %8) #12
  %36 = sub i32 %.1.lcssa, %3
  %37 = icmp ult i32 %36, %4
  br i1 %37, label %.lr.ph46, label %._crit_edge47, !llvm.loop !49

._crit_edge47:                                    ; preds = %._crit_edge, %7
  %38 = trunc i32 %4 to i16
  ret i16 %38
}